#include <math.h>
#include <stdio.h>
#include <stdlib.h>
#include <string.h>
#include <iostream>
using namespace std;

/*
 * ????1000012702_25.cpp
 * Created on: 2010-10-29
 * Author: ???
 * ???????????
 */
int main(){
	int n,k;  //?????? n:?????????k:????????
	int a[100001];  //??????a???100001???
	cin>>n;  //????a?????
	int i,j,s=0;  //????i,j,?????t
	for(i=1;i<=n;i++)cin>>a[i];  //??????????n???
	cin>>k;  //???????k
	for(i=1;i<=n;i++){  //??,????1???n
			if(a[i]==k){   //???????????????,??????
				s++;    //???????
				for(j=i;j<n;j++)a[j]=a[j+1]; //???????????????,?????
				a[j]=0;  //????????0,???????????
				i--;  //i??,?????????
				}
			}
		for(i=1;i<n-s;i++)
			cout<<a[i]<<" ";
		cout<<a[i];//?????????????
		return 0;
	}